target datalayout = "e-m:e-p270:32:32-p271:32:32-p272:64:64-i64:64-i128:128-f80:128-n8:16:32:64-S128"
target triple = "x86_64-pc-linux-gnu"

%"class.zmq::msg_t" = type { %union.anon }
%union.anon = type { %struct.anon }
%struct.anon = type { ptr, [34 x i8], i8, i8, i32, %"union.zmq::msg_t::group_t" }
%"union.zmq::msg_t::group_t" = type { %struct.anon.1 }
%struct.anon.1 = type { i8, ptr }
%struct.anon.2 = type { ptr, [33 x i8], i8, i8, i8, i32, %"union.zmq::msg_t::group_t" }
%struct.anon.0 = type { i8, [15 x i8] }

; Function Attrs: mustprogress nounwind uwtable
define noundef i32 @_ZN3zmq5msg_t4initEv(ptr noundef nonnull align 8 dereferenceable(64) %0) #0 align 2 {
  %2 = alloca ptr, align 8
  store ptr %0, ptr %2, align 8, !tbaa !3
  %3 = load ptr, ptr %2, align 8
  %4 = getelementptr inbounds nuw %"class.zmq::msg_t", ptr %3, i32 0, i32 0
  %5 = getelementptr inbounds nuw %struct.anon.2, ptr %4, i32 0, i32 0
  store ptr null, ptr %5, align 8, !tbaa !8
  %6 = getelementptr inbounds nuw %"class.zmq::msg_t", ptr %3, i32 0, i32 0
  %7 = getelementptr inbounds nuw %struct.anon.2, ptr %6, i32 0, i32 3
  store i8 101, ptr %7, align 2, !tbaa !8
  %8 = getelementptr inbounds nuw %"class.zmq::msg_t", ptr %3, i32 0, i32 0
  %9 = getelementptr inbounds nuw %struct.anon.2, ptr %8, i32 0, i32 4
  store i8 0, ptr %9, align 1, !tbaa !8
  %10 = getelementptr inbounds nuw %"class.zmq::msg_t", ptr %3, i32 0, i32 0
  %11 = getelementptr inbounds nuw %struct.anon.2, ptr %10, i32 0, i32 2
  store i8 0, ptr %11, align 1, !tbaa !8
  %12 = getelementptr inbounds nuw %"class.zmq::msg_t", ptr %3, i32 0, i32 0
  %13 = getelementptr inbounds nuw %struct.anon.2, ptr %12, i32 0, i32 6
  %14 = getelementptr inbounds nuw %struct.anon.0, ptr %13, i32 0, i32 1
  %15 = getelementptr inbounds [15 x i8], ptr %14, i64 0, i64 0
  store i8 0, ptr %15, align 1, !tbaa !8
  %16 = getelementptr inbounds nuw %"class.zmq::msg_t", ptr %3, i32 0, i32 0
  %17 = getelementptr inbounds nuw %struct.anon.2, ptr %16, i32 0, i32 6
  store i8 0, ptr %17, align 8, !tbaa !8
  %18 = getelementptr inbounds nuw %"class.zmq::msg_t", ptr %3, i32 0, i32 0
  %19 = getelementptr inbounds nuw %struct.anon.2, ptr %18, i32 0, i32 5
  store i32 0, ptr %19, align 4, !tbaa !8
  ret i32 0
}