; Function Attrs: mustprogress nofree norecurse nosync nounwind willreturn memory(argmem: write) uwtable
define noundef i32 @_ZN3zmq5msg_t4initEv(ptr noundef nonnull writeonly align 8 captures(none) dereferenceable(64) initializes((0, 8), (41, 50)) %0) local_unnamed_addr #4 align 2 {
  store ptr null, ptr %0, align 8, !tbaa !3
  %2 = getelementptr inbounds nuw i8, ptr %0, i64 42
  store i8 101, ptr %2, align 2, !tbaa !3
  %3 = getelementptr inbounds nuw i8, ptr %0, i64 43
  %4 = getelementptr inbounds nuw i8, ptr %0, i64 41
  store i8 0, ptr %4, align 1, !tbaa !3
  tail call void @llvm.memset.p0.i64(ptr noundef nonnull align 1 dereferenceable(7) %3, i8 0, i64 7, i1 false)
  ret i32 0
}